; Function Attrs: mustprogress uwtable
define hidden void @_ZN6Assimp15ColladaExporter15GetBoneUniqueIdB5cxx11EPK6aiBone(ptr dead_on_unwind noalias writable sret(%"class.std::__cxx11::basic_string") align 8 %0, ptr noundef nonnull align 8 dereferenceable(1248) %1, ptr noundef %2) local_unnamed_addr #0 align 2 personality ptr @__gxx_personality_v0 {
  %4 = getelementptr inbounds nuw i8, ptr %1, i64 1088
  %5 = load ptr, ptr %4, align 8
  %6 = getelementptr inbounds nuw i8, ptr %5, i64 8
  %7 = load ptr, ptr %6, align 8
  %8 = tail call noundef ptr @_ZNK6aiNode12findBoneNodeEPK6aiBone(ptr noundef nonnull align 8 dereferenceable(1144) %7, ptr noundef %2)
  %9 = icmp eq ptr %8, null
  br i1 %9, label %10, label %13

10:                                               ; preds = %3
  %11 = getelementptr inbounds nuw i8, ptr %0, i64 16
  store ptr %11, ptr %0, align 8
  %12 = getelementptr inbounds nuw i8, ptr %0, i64 8
  store i64 0, ptr %12, align 8
  store i8 0, ptr %11, align 8
  br label %14

13:                                               ; preds = %3
  tail call void @_ZN6Assimp15ColladaExporter15GetNodeUniqueIdB5cxx11EPK6aiNode(ptr dead_on_unwind writable sret(%"class.std::__cxx11::basic_string") align 8 %0, ptr noundef nonnull align 8 dereferenceable(1248) %1, ptr noundef nonnull %8)
  br label %14

14:                                               ; preds = %13, %10
  ret void
}